target datalayout = "e-m:e-p270:32:32-p271:32:32-p272:64:64-i64:64-i128:128-f80:128-n8:16:32:64-S128"
target triple = "x86_64-pc-linux-gnu"

%struct._asn1_ctx_t = type { i32, i32, i8, ptr, ptr, ptr, ptr, ptr, %struct.anon, %struct.anon.2, %struct.anon.3, ptr }
%struct.anon = type { i32, i8, i8, i8, ptr, ptr, i32, i32, ptr, ptr, ptr, %union.anon }
%union.anon = type { %struct.anon.0 }
%struct.anon.0 = type { ptr }
%struct.anon.2 = type { ptr, ptr, ptr }
%struct.anon.3 = type { i32, i8, ptr, i32, i32, ptr, ptr, ptr, %union.anon.4 }
%union.anon.4 = type { %struct.anon.5 }
%struct.anon.5 = type { ptr }
%struct.mms_actx_private_data_t = type { i32, i32, i32, i32, i32, i16, ptr, i32, i32, i32, ptr, ptr, i32 }
%struct.nstime_t = type { i64, i32 }
%struct._mms_transaction_t = type { i32, i32, %struct.nstime_t, i32, i32 }

@ett_mms_ConfirmedServiceRequest = internal global i32 0, align 4

; Function Attrs: null_pointer_is_valid sspstrong uwtable
define internal i32 @dissect_mms_ConfirmedServiceRequest(i1 noundef zeroext %0, ptr noundef %1, i32 noundef %2, ptr noundef %3, ptr noundef %4, i32 noundef %5) #0 {
  %7 = alloca i8, align 1
  %8 = alloca ptr, align 8
  %9 = alloca i32, align 4
  %10 = alloca ptr, align 8
  %11 = alloca ptr, align 8
  %12 = alloca i32, align 4
  %13 = alloca i8, align 1
  %14 = alloca i8, align 1
  %15 = alloca i32, align 4
  %16 = alloca ptr, align 8
  %17 = zext i1 %0 to i8
  store i8 %17, ptr %7, align 1
  store ptr %1, ptr %8, align 8
  store i32 %2, ptr %9, align 4
  store ptr %3, ptr %10, align 8
  store ptr %4, ptr %11, align 8
  store i32 %5, ptr %12, align 4
  call void @llvm.lifetime.start.p0(i64 1, ptr %13) #8
  call void @llvm.lifetime.start.p0(i64 1, ptr %14) #8
  call void @llvm.lifetime.start.p0(i64 4, ptr %15) #8
  %18 = load ptr, ptr %8, align 8
  %19 = load i32, ptr %9, align 4
  %20 = call i32 @get_ber_identifier(ptr noundef %18, i32 noundef %19, ptr noundef %13, ptr noundef %14, ptr noundef %15)
  call void @llvm.lifetime.start.p0(i64 8, ptr %16) #8
  %21 = load ptr, ptr %10, align 8
  %22 = getelementptr inbounds nuw %struct._asn1_ctx_t, ptr %21, i32 0, i32 7
  %23 = load ptr, ptr %22, align 8
  store ptr %23, ptr %16, align 8
  %24 = load ptr, ptr %16, align 8
  %25 = icmp ne ptr %24, null
  br i1 %25, label %26, label %30

26:                                               ; preds = %6
  %27 = load i32, ptr %15, align 4
  %28 = load ptr, ptr %16, align 8
  %29 = getelementptr inbounds nuw %struct.mms_actx_private_data_t, ptr %28, i32 0, i32 7
  store i32 %27, ptr %29, align 8
  br label %30

30:                                               ; preds = %26, %6
  %31 = load ptr, ptr %10, align 8
  %32 = load ptr, ptr %11, align 8
  %33 = load ptr, ptr %8, align 8
  %34 = load i32, ptr %9, align 4
  %35 = load i32, ptr %12, align 4
  %36 = load i32, ptr @ett_mms_ConfirmedServiceRequest, align 4
  %37 = call i32 @dissect_ber_choice(ptr noundef %31, ptr noundef %32, ptr noundef %33, i32 noundef %34, ptr noundef @ConfirmedServiceRequest_choice, i32 noundef %35, i32 noundef %36, ptr noundef null)
  store i32 %37, ptr %9, align 4
  %38 = load ptr, ptr %16, align 8
  %39 = icmp ne ptr %38, null
  br i1 %39, label %40, label %134

40:                                               ; preds = %30
  %41 = load ptr, ptr %16, align 8
  %42 = getelementptr inbounds nuw %struct.mms_actx_private_data_t, ptr %41, i32 0, i32 10
  %43 = load ptr, ptr %42, align 8
  %44 = icmp ne ptr %43, null
  br i1 %44, label %45, label %134

45:                                               ; preds = %40
  %46 = load ptr, ptr %16, align 8
  %47 = getelementptr inbounds nuw %struct.mms_actx_private_data_t, ptr %46, i32 0, i32 7
  %48 = load i32, ptr %47, align 8
  %49 = icmp eq i32 %48, 1
  br i1 %49, label %50, label %89

50:                                               ; preds = %45
  %51 = load ptr, ptr %16, align 8
  %52 = getelementptr inbounds nuw %struct.mms_actx_private_data_t, ptr %51, i32 0, i32 8
  %53 = load i32, ptr %52, align 4
  %54 = icmp eq i32 %53, 9
  br i1 %54, label %55, label %66

55:                                               ; preds = %50
  %56 = load ptr, ptr %16, align 8
  %57 = getelementptr inbounds nuw %struct.mms_actx_private_data_t, ptr %56, i32 0, i32 9
  %58 = load i32, ptr %57, align 8
  %59 = icmp eq i32 %58, 0
  br i1 %59, label %60, label %65

60:                                               ; preds = %55
  %61 = load ptr, ptr %16, align 8
  %62 = getelementptr inbounds nuw %struct.mms_actx_private_data_t, ptr %61, i32 0, i32 10
  %63 = load ptr, ptr %62, align 8
  %64 = getelementptr inbounds nuw %struct._mms_transaction_t, ptr %63, i32 0, i32 4
  store i32 1, ptr %64, align 4
  br label %65

65:                                               ; preds = %60, %55
  br label %88

66:                                               ; preds = %50
  %67 = load ptr, ptr %16, align 8
  %68 = getelementptr inbounds nuw %struct.mms_actx_private_data_t, ptr %67, i32 0, i32 8
  %69 = load i32, ptr %68, align 4
  %70 = icmp eq i32 %69, 0
  br i1 %70, label %71, label %76

71:                                               ; preds = %66
  %72 = load ptr, ptr %16, align 8
  %73 = getelementptr inbounds nuw %struct.mms_actx_private_data_t, ptr %72, i32 0, i32 10
  %74 = load ptr, ptr %73, align 8
  %75 = getelementptr inbounds nuw %struct._mms_transaction_t, ptr %74, i32 0, i32 4
  store i32 2, ptr %75, align 4
  br label %87

76:                                               ; preds = %66
  %77 = load ptr, ptr %16, align 8
  %78 = getelementptr inbounds nuw %struct.mms_actx_private_data_t, ptr %77, i32 0, i32 8
  %79 = load i32, ptr %78, align 4
  %80 = icmp eq i32 %79, 2
  br i1 %80, label %81, label %86

81:                                               ; preds = %76
  %82 = load ptr, ptr %16, align 8
  %83 = getelementptr inbounds nuw %struct.mms_actx_private_data_t, ptr %82, i32 0, i32 10
  %84 = load ptr, ptr %83, align 8
  %85 = getelementptr inbounds nuw %struct._mms_transaction_t, ptr %84, i32 0, i32 4
  store i32 3, ptr %85, align 4
  br label %86

86:                                               ; preds = %81, %76
  br label %87

87:                                               ; preds = %86, %71
  br label %88

88:                                               ; preds = %87, %65
  br label %133

89:                                               ; preds = %45
  %90 = load ptr, ptr %16, align 8
  %91 = getelementptr inbounds nuw %struct.mms_actx_private_data_t, ptr %90, i32 0, i32 7
  %92 = load i32, ptr %91, align 8
  %93 = icmp eq i32 %92, 12
  br i1 %93, label %94, label %99

94:                                               ; preds = %89
  %95 = load ptr, ptr %16, align 8
  %96 = getelementptr inbounds nuw %struct.mms_actx_private_data_t, ptr %95, i32 0, i32 10
  %97 = load ptr, ptr %96, align 8
  %98 = getelementptr inbounds nuw %struct._mms_transaction_t, ptr %97, i32 0, i32 4
  store i32 3, ptr %98, align 4
  br label %132

99:                                               ; preds = %89
  %100 = load ptr, ptr %16, align 8
  %101 = getelementptr inbounds nuw %struct.mms_actx_private_data_t, ptr %100, i32 0, i32 7
  %102 = load i32, ptr %101, align 8
  %103 = icmp eq i32 %102, 4
  br i1 %103, label %104, label %109

104:                                              ; preds = %99
  %105 = load ptr, ptr %16, align 8
  %106 = getelementptr inbounds nuw %struct.mms_actx_private_data_t, ptr %105, i32 0, i32 10
  %107 = load ptr, ptr %106, align 8
  %108 = getelementptr inbounds nuw %struct._mms_transaction_t, ptr %107, i32 0, i32 4
  store i32 6, ptr %108, align 4
  br label %131

109:                                              ; preds = %99
  %110 = load ptr, ptr %16, align 8
  %111 = getelementptr inbounds nuw %struct.mms_actx_private_data_t, ptr %110, i32 0, i32 7
  %112 = load i32, ptr %111, align 8
  %113 = icmp eq i32 %112, 5
  br i1 %113, label %114, label %119

114:                                              ; preds = %109
  %115 = load ptr, ptr %16, align 8
  %116 = getelementptr inbounds nuw %struct.mms_actx_private_data_t, ptr %115, i32 0, i32 10
  %117 = load ptr, ptr %116, align 8
  %118 = getelementptr inbounds nuw %struct._mms_transaction_t, ptr %117, i32 0, i32 4
  store i32 7, ptr %118, align 4
  br label %130

119:                                              ; preds = %109
  %120 = load ptr, ptr %16, align 8
  %121 = getelementptr inbounds nuw %struct.mms_actx_private_data_t, ptr %120, i32 0, i32 7
  %122 = load i32, ptr %121, align 8
  %123 = icmp eq i32 %122, 6
  br i1 %123, label %124, label %129

124:                                              ; preds = %119
  %125 = load ptr, ptr %16, align 8
  %126 = getelementptr inbounds nuw %struct.mms_actx_private_data_t, ptr %125, i32 0, i32 10
  %127 = load ptr, ptr %126, align 8
  %128 = getelementptr inbounds nuw %struct._mms_transaction_t, ptr %127, i32 0, i32 4
  store i32 4, ptr %128, align 4
  br label %129

129:                                              ; preds = %124, %119
  br label %130

130:                                              ; preds = %129, %114
  br label %131

131:                                              ; preds = %130, %104
  br label %132

132:                                              ; preds = %131, %94
  br label %133

133:                                              ; preds = %132, %88
  br label %134

134:                                              ; preds = %133, %40, %30
  %135 = load i32, ptr %9, align 4
  call void @llvm.lifetime.end.p0(i64 8, ptr %16) #8
  call void @llvm.lifetime.end.p0(i64 4, ptr %15) #8
  call void @llvm.lifetime.end.p0(i64 1, ptr %14) #8
  call void @llvm.lifetime.end.p0(i64 1, ptr %13) #8
  ret i32 %135
}