; Function Attrs: null_pointer_is_valid sspstrong uwtable
define internal i32 @dissect_mms_ConfirmedServiceRequest(i1 zeroext %0, ptr noundef %1, i32 noundef %2, ptr noundef %3, ptr noundef %4, i32 noundef %5) #0 {
  %7 = alloca i8, align 1
  %8 = alloca i8, align 1
  %9 = alloca i32, align 4
  call void @llvm.lifetime.start.p0(i64 1, ptr nonnull %7) #8
  call void @llvm.lifetime.start.p0(i64 1, ptr nonnull %8) #8
  call void @llvm.lifetime.start.p0(i64 4, ptr nonnull %9) #8
  %10 = call i32 @get_ber_identifier(ptr noundef %1, i32 noundef %2, ptr noundef nonnull %7, ptr noundef nonnull %8, ptr noundef nonnull %9)
  %11 = getelementptr inbounds nuw i8, ptr %3, i64 48
  %12 = load ptr, ptr %11, align 8
  %.not = icmp eq ptr %12, null
  br i1 %.not, label %.thread, label %15

.thread:                                          ; preds = %6
  %13 = load i32, ptr @ett_mms_ConfirmedServiceRequest, align 4
  %14 = call i32 @dissect_ber_choice(ptr noundef %3, ptr noundef %4, ptr noundef %1, i32 noundef %2, ptr noundef nonnull @ConfirmedServiceRequest_choice, i32 noundef %5, i32 noundef %13, ptr noundef null)
  br label %45

15:                                               ; preds = %6
  %16 = load i32, ptr %9, align 4
  %17 = getelementptr inbounds nuw i8, ptr %12, i64 32
  store i32 %16, ptr %17, align 8
  %18 = load i32, ptr @ett_mms_ConfirmedServiceRequest, align 4
  %19 = call i32 @dissect_ber_choice(ptr noundef %3, ptr noundef %4, ptr noundef %1, i32 noundef %2, ptr noundef nonnull @ConfirmedServiceRequest_choice, i32 noundef %5, i32 noundef %18, ptr noundef null)
  %20 = getelementptr inbounds nuw i8, ptr %12, i64 48
  %21 = load ptr, ptr %20, align 8
  %.not31 = icmp eq ptr %21, null
  br i1 %.not31, label %45, label %22

22:                                               ; preds = %15
  %23 = load i32, ptr %17, align 8
  switch i32 %23, label %45 [
    i32 1, label %24
    i32 12, label %37
    i32 4, label %39
    i32 5, label %41
    i32 6, label %43
  ]

24:                                               ; preds = %22
  %25 = getelementptr inbounds nuw i8, ptr %12, i64 36
  %26 = load i32, ptr %25, align 4
  switch i32 %26, label %45 [
    i32 9, label %27
    i32 0, label %33
    i32 2, label %35
  ]

27:                                               ; preds = %24
  %28 = getelementptr inbounds nuw i8, ptr %12, i64 40
  %29 = load i32, ptr %28, align 8
  %30 = icmp eq i32 %29, 0
  br i1 %30, label %31, label %45

31:                                               ; preds = %27
  %32 = getelementptr inbounds nuw i8, ptr %21, i64 28
  store i32 1, ptr %32, align 4
  br label %45

33:                                               ; preds = %24
  %34 = getelementptr inbounds nuw i8, ptr %21, i64 28
  store i32 2, ptr %34, align 4
  br label %45

35:                                               ; preds = %24
  %36 = getelementptr inbounds nuw i8, ptr %21, i64 28
  store i32 3, ptr %36, align 4
  br label %45

37:                                               ; preds = %22
  %38 = getelementptr inbounds nuw i8, ptr %21, i64 28
  store i32 3, ptr %38, align 4
  br label %45

39:                                               ; preds = %22
  %40 = getelementptr inbounds nuw i8, ptr %21, i64 28
  store i32 6, ptr %40, align 4
  br label %45

41:                                               ; preds = %22
  %42 = getelementptr inbounds nuw i8, ptr %21, i64 28
  store i32 7, ptr %42, align 4
  br label %45

43:                                               ; preds = %22
  %44 = getelementptr inbounds nuw i8, ptr %21, i64 28
  store i32 4, ptr %44, align 4
  br label %45

45:                                               ; preds = %.thread, %22, %24, %33, %35, %27, %31, %39, %43, %41, %37, %15
  %46 = phi i32 [ %14, %.thread ], [ %19, %22 ], [ %19, %24 ], [ %19, %33 ], [ %19, %35 ], [ %19, %27 ], [ %19, %31 ], [ %19, %39 ], [ %19, %43 ], [ %19, %41 ], [ %19, %37 ], [ %19, %15 ]
  call void @llvm.lifetime.end.p0(i64 4, ptr nonnull %9) #8
  call void @llvm.lifetime.end.p0(i64 1, ptr nonnull %8) #8
  call void @llvm.lifetime.end.p0(i64 1, ptr nonnull %7) #8
  ret i32 %46
}